; ModuleID = 'source-C-CXX/32/1081.c'
source_filename = "source-C-CXX/32/1081.c"
target datalayout = "e-m:e-p270:32:32-p271:32:32-p272:64:64-i64:64-f80:128-n8:16:32:64-S128"
target triple = "x86_64-pc-linux-gnu"

@.str = private unnamed_addr constant [3 x i8] c"%d\00", align 1
@.str.1 = private unnamed_addr constant [3 x i8] c"%s\00", align 1

; Function Attrs: nofree nounwind sspstrong uwtable
define dso_local i32 @main() local_unnamed_addr #0 {
  %1 = alloca i32, align 4
  %2 = alloca [1000 x i8], align 16
  %3 = getelementptr inbounds [1000 x i8], [1000 x i8]* %2, i64 0, i64 0
  %4 = alloca [1000 x i8], align 16
  %5 = getelementptr inbounds [1000 x i8], [1000 x i8]* %4, i64 0, i64 0
  %6 = bitcast i32* %1 to i8*
  call void @llvm.lifetime.start.p0i8(i64 4, i8* nonnull %6) #5
  %7 = call i32 (i8*, ...) @__isoc99_scanf(i8* getelementptr inbounds ([3 x i8], [3 x i8]* @.str, i64 0, i64 0), i32* nonnull %1)
  %8 = getelementptr inbounds [1000 x i8], [1000 x i8]* %2, i64 0, i64 0
  call void @llvm.lifetime.start.p0i8(i64 1000, i8* nonnull %8) #5
  %9 = getelementptr inbounds [1000 x i8], [1000 x i8]* %4, i64 0, i64 0
  call void @llvm.lifetime.start.p0i8(i64 1000, i8* nonnull %9) #5
  %10 = load i32, i32* %1, align 4, !tbaa !5
  %11 = icmp sgt i32 %10, 0
  br i1 %11, label %12, label %15

12:                                               ; preds = %0, %28
  %13 = phi i32 [ %30, %28 ], [ 0, %0 ]
  call void @llvm.memset.p0i8.i64(i8* noundef nonnull align 16 dereferenceable(1000) %3, i8 0, i64 1000, i1 false)
  call void @llvm.memset.p0i8.i64(i8* noundef nonnull align 16 dereferenceable(1000) %5, i8 0, i64 1000, i1 false)
  %14 = call i32 (i8*, ...) @__isoc99_scanf(i8* getelementptr inbounds ([3 x i8], [3 x i8]* @.str.1, i64 0, i64 0), i8* nonnull %8)
  br label %16

15:                                               ; preds = %28, %0
  call void @llvm.lifetime.end.p0i8(i64 1000, i8* nonnull %9) #5
  call void @llvm.lifetime.end.p0i8(i64 1000, i8* nonnull %8) #5
  call void @llvm.lifetime.end.p0i8(i64 4, i8* nonnull %6) #5
  ret i32 0

16:                                               ; preds = %26, %12
  %17 = phi i64 [ %27, %26 ], [ 0, %12 ]
  %18 = getelementptr inbounds [1000 x i8], [1000 x i8]* %2, i64 0, i64 %17
  %19 = load i8, i8* %18, align 1, !tbaa !9
  switch i8 %19, label %26 [
    i8 0, label %28
    i8 65, label %23
    i8 84, label %20
    i8 67, label %21
    i8 71, label %22
  ]

20:                                               ; preds = %16
  br label %23

21:                                               ; preds = %16
  br label %23

22:                                               ; preds = %16
  br label %23

23:                                               ; preds = %16, %20, %22, %21
  %24 = phi i8 [ 71, %21 ], [ 67, %22 ], [ 65, %20 ], [ 84, %16 ]
  %25 = getelementptr inbounds [1000 x i8], [1000 x i8]* %4, i64 0, i64 %17
  store i8 %24, i8* %25, align 1, !tbaa !9
  br label %26

26:                                               ; preds = %23, %16
  %27 = add nuw i64 %17, 1
  br label %16, !llvm.loop !10

28:                                               ; preds = %16
  %29 = call i32 @puts(i8* nonnull %9)
  %30 = add nuw nsw i32 %13, 1
  %31 = load i32, i32* %1, align 4, !tbaa !5
  %32 = icmp slt i32 %30, %31
  br i1 %32, label %12, label %15, !llvm.loop !12
}

; Function Attrs: argmemonly mustprogress nofree nosync nounwind willreturn
declare void @llvm.lifetime.start.p0i8(i64 immarg, i8* nocapture) #1

; Function Attrs: nofree nounwind
declare noundef i32 @__isoc99_scanf(i8* nocapture noundef readonly, ...) local_unnamed_addr #2

; Function Attrs: argmemonly mustprogress nofree nosync nounwind willreturn
declare void @llvm.lifetime.end.p0i8(i64 immarg, i8* nocapture) #1

; Function Attrs: nofree nounwind
declare noundef i32 @puts(i8* nocapture noundef readonly) local_unnamed_addr #3

; Function Attrs: argmemonly nofree nounwind willreturn writeonly
declare void @llvm.memset.p0i8.i64(i8* nocapture writeonly, i8, i64, i1 immarg) #4


!llvm.module.flags = !{!0, !1, !2, !3}
!llvm.ident = !{!4}

!0 = !{i32 1, !"wchar_size", i32 4}
!1 = !{i32 7, !"PIC Level", i32 2}
!2 = !{i32 7, !"PIE Level", i32 2}
!3 = !{i32 7, !"uwtable", i32 1}
!4 = !{!"clang version 13.0.0"}
!5 = !{!6, !6, i64 0}
!6 = !{!"int", !7, i64 0}
!7 = !{!"omnipotent char", !8, i64 0}
!8 = !{!"Simple C/C++ TBAA"}
!9 = !{!7, !7, i64 0}
!10 = distinct !{!10, !11}
!11 = !{!"llvm.loop.mustprogress"}
!12 = distinct !{!12, !11}
